; Function Attrs: mustprogress nounwind uwtable
define hidden void @_ZN11opencv_onnx16TypeProto_TensorD2Ev(ptr noundef nonnull align 8 dereferenceable(40) %0) unnamed_addr #7 align 2 personality ptr @__gxx_personality_v0 {
  %2 = getelementptr inbounds nuw i8, ptr %0, i64 8
  %3 = load i64, ptr %2, align 8, !tbaa !33
  %4 = and i64 %3, 1
  %.not.i = icmp eq i64 %4, 0
  %5 = and i64 %3, -4
  %6 = inttoptr i64 %5 to ptr
  br i1 %.not.i, label %_ZNK6google8protobuf11MessageLite21GetArenaForAllocationEv.exit, label %7, !prof !43

7:                                                ; preds = %1
  %8 = load ptr, ptr %6, align 8, !tbaa !44
  br label %_ZNK6google8protobuf11MessageLite21GetArenaForAllocationEv.exit

_ZNK6google8protobuf11MessageLite21GetArenaForAllocationEv.exit: ; preds = %7, %1
  %.0.i.i = phi ptr [ %8, %7 ], [ %6, %1 ]
  %.not = icmp eq ptr %.0.i.i, null
  br i1 %.not, label %9, label %_ZN6google8protobuf8internal16InternalMetadata6DeleteINS0_15UnknownFieldSetEEEvv.exit

9:                                                ; preds = %_ZNK6google8protobuf11MessageLite21GetArenaForAllocationEv.exit
  %.not.i1 = icmp eq ptr %0, @_ZN11opencv_onnx35_TypeProto_Tensor_default_instance_E
  br i1 %.not.i1, label %_ZN11opencv_onnx16TypeProto_Tensor10SharedDtorEv.exit, label %10

10:                                               ; preds = %9
  %11 = getelementptr inbounds nuw i8, ptr %0, i64 24
  %12 = load ptr, ptr %11, align 8, !tbaa !277
  %13 = icmp eq ptr %12, null
  br i1 %13, label %_ZN11opencv_onnx16TypeProto_Tensor10SharedDtorEv.exit, label %14

14:                                               ; preds = %10
  tail call void @_ZN11opencv_onnx16TensorShapeProtoD2Ev(ptr noundef nonnull align 8 dereferenceable(48) %12) #22
  tail call void @_ZdlPv(ptr noundef nonnull %12) #23
  %.pre = load i64, ptr %2, align 8, !tbaa !33
  %.pre4 = and i64 %.pre, 1
  br label %_ZN11opencv_onnx16TypeProto_Tensor10SharedDtorEv.exit

_ZN11opencv_onnx16TypeProto_Tensor10SharedDtorEv.exit: ; preds = %14, %10, %9
  %.pre-phi = phi i64 [ %.pre4, %14 ], [ %4, %10 ], [ %4, %9 ]
  %15 = phi i64 [ %.pre, %14 ], [ %3, %10 ], [ %3, %9 ]
  %.not.i2 = icmp eq i64 %.pre-phi, 0
  br i1 %.not.i2, label %_ZN6google8protobuf8internal16InternalMetadata6DeleteINS0_15UnknownFieldSetEEEvv.exit, label %16

16:                                               ; preds = %_ZN11opencv_onnx16TypeProto_Tensor10SharedDtorEv.exit
  invoke void @_ZN6google8protobuf8internal16InternalMetadata21DeleteOutOfLineHelperINS0_15UnknownFieldSetEEEvv(ptr noundef nonnull align 8 dereferenceable(8) %2)
          to label %._ZN6google8protobuf8internal16InternalMetadata6DeleteINS0_15UnknownFieldSetEEEvv.exit_crit_edge unwind label %27

._ZN6google8protobuf8internal16InternalMetadata6DeleteINS0_15UnknownFieldSetEEEvv.exit_crit_edge: ; preds = %16
  %.pre3 = load i64, ptr %2, align 8, !tbaa !33
  br label %_ZN6google8protobuf8internal16InternalMetadata6DeleteINS0_15UnknownFieldSetEEEvv.exit

_ZN6google8protobuf8internal16InternalMetadata6DeleteINS0_15UnknownFieldSetEEEvv.exit: ; preds = %._ZN6google8protobuf8internal16InternalMetadata6DeleteINS0_15UnknownFieldSetEEEvv.exit_crit_edge, %_ZN11opencv_onnx16TypeProto_Tensor10SharedDtorEv.exit, %_ZNK6google8protobuf11MessageLite21GetArenaForAllocationEv.exit
  %17 = phi i64 [ %.pre3, %._ZN6google8protobuf8internal16InternalMetadata6DeleteINS0_15UnknownFieldSetEEEvv.exit_crit_edge ], [ %15, %_ZN11opencv_onnx16TypeProto_Tensor10SharedDtorEv.exit ], [ %3, %_ZNK6google8protobuf11MessageLite21GetArenaForAllocationEv.exit ]
  store ptr getelementptr inbounds nuw inrange(-16, 104) (i8, ptr @_ZTVN6google8protobuf11MessageLiteE, i64 16), ptr %0, align 8, !tbaa !34
  %18 = and i64 %17, 2
  %.not.i.i = icmp eq i64 %18, 0
  br i1 %.not.i.i, label %_ZN6google8protobuf11MessageLiteD2Ev.exit, label %19

19:                                               ; preds = %_ZN6google8protobuf8internal16InternalMetadata6DeleteINS0_15UnknownFieldSetEEEvv.exit
  %20 = and i64 %17, 1
  %.not1.i.i = icmp eq i64 %20, 0
  %21 = and i64 %17, -4
  %22 = inttoptr i64 %21 to ptr
  br i1 %.not1.i.i, label %_ZNK6google8protobuf8internal16InternalMetadata5arenaEv.exit.i.i, label %23, !prof !43

23:                                               ; preds = %19
  %24 = load ptr, ptr %22, align 8, !tbaa !44
  br label %_ZNK6google8protobuf8internal16InternalMetadata5arenaEv.exit.i.i

_ZNK6google8protobuf8internal16InternalMetadata5arenaEv.exit.i.i: ; preds = %23, %19
  %.0.i.i.i = phi ptr [ %24, %23 ], [ %22, %19 ]
  %25 = icmp eq ptr %.0.i.i.i, null
  br i1 %25, label %_ZN6google8protobuf11MessageLiteD2Ev.exit, label %26

26:                                               ; preds = %_ZNK6google8protobuf8internal16InternalMetadata5arenaEv.exit.i.i
  tail call void @_ZN6google8protobuf8internal15ThreadSafeArenaD1Ev(ptr noundef nonnull align 8 dereferenceable(32) %.0.i.i.i) #22
  tail call void @_ZdlPv(ptr noundef nonnull %.0.i.i.i) #23
  br label %_ZN6google8protobuf11MessageLiteD2Ev.exit

_ZN6google8protobuf11MessageLiteD2Ev.exit:        ; preds = %_ZN6google8protobuf8internal16InternalMetadata6DeleteINS0_15UnknownFieldSetEEEvv.exit, %_ZNK6google8protobuf8internal16InternalMetadata5arenaEv.exit.i.i, %26
  ret void

27:                                               ; preds = %16
  %28 = landingpad { ptr, i32 }
          catch ptr null
  %29 = extractvalue { ptr, i32 } %28, 0
  tail call void @__clang_call_terminate(ptr %29) #21
  unreachable
}